target datalayout = "e-m:e-p270:32:32-p271:32:32-p272:64:64-i64:64-i128:128-f80:128-n8:16:32:64-S128"
target triple = "x86_64-pc-linux-gnu"

%struct.lua_State = type { ptr, i8, i8, i8, i8, i16, %union.StkIdRel, ptr, ptr, %union.StkIdRel, %union.StkIdRel, ptr, %union.StkIdRel, ptr, ptr, ptr, %struct.CallInfo, ptr, i64, i32, i32, i32, i32, i32, %struct.anon.2 }
%union.StkIdRel = type { ptr }
%struct.CallInfo = type { %union.StkIdRel, %union.StkIdRel, ptr, ptr, %union.anon, %union.anon.1, i32 }
%union.anon = type { %struct.anon.0 }
%struct.anon.0 = type { ptr, i64, i64 }
%union.anon.1 = type { i32 }
%struct.anon.2 = type { i32, i32 }
%struct.global_State = type { ptr, ptr, i64, i64, i64, i64, %struct.stringtable, %struct.TValue, %struct.TValue, i32, [6 x i8], i8, i8, i8, i8, i8, i8, ptr, ptr, ptr, ptr, ptr, ptr, ptr, ptr, ptr, ptr, ptr, ptr, ptr, ptr, ptr, ptr, ptr, ptr, ptr, ptr, ptr, [25 x ptr], [9 x ptr], [53 x [2 x ptr]], ptr, ptr }
%struct.stringtable = type { ptr, i32, i32 }
%struct.TValue = type { %union.Value, i8 }
%union.Value = type { ptr }

; Function Attrs: nounwind uwtable
define hidden void @luaM_free_(ptr noundef %0, ptr noundef %1, i64 noundef %2) #0 {
  %4 = alloca ptr, align 8
  %5 = alloca ptr, align 8
  %6 = alloca i64, align 8
  %7 = alloca ptr, align 8
  store ptr %0, ptr %4, align 8, !tbaa !4
  store ptr %1, ptr %5, align 8, !tbaa !9
  store i64 %2, ptr %6, align 8, !tbaa !16
  call void @llvm.lifetime.start.p0(i64 8, ptr %7) #6
  %8 = load ptr, ptr %4, align 8, !tbaa !4
  %9 = getelementptr inbounds nuw %struct.lua_State, ptr %8, i32 0, i32 7
  %10 = load ptr, ptr %9, align 8, !tbaa !18
  store ptr %10, ptr %7, align 8, !tbaa !28
  %11 = load ptr, ptr %7, align 8, !tbaa !28
  %12 = getelementptr inbounds nuw %struct.global_State, ptr %11, i32 0, i32 0
  %13 = load ptr, ptr %12, align 8, !tbaa !29
  %14 = load ptr, ptr %7, align 8, !tbaa !28
  %15 = getelementptr inbounds nuw %struct.global_State, ptr %14, i32 0, i32 1
  %16 = load ptr, ptr %15, align 8, !tbaa !36
  %17 = load ptr, ptr %5, align 8, !tbaa !9
  %18 = load i64, ptr %6, align 8, !tbaa !16
  %19 = call ptr %13(ptr noundef %16, ptr noundef %17, i64 noundef %18, i64 noundef 0)
  %20 = load i64, ptr %6, align 8, !tbaa !16
  %21 = load ptr, ptr %7, align 8, !tbaa !28
  %22 = getelementptr inbounds nuw %struct.global_State, ptr %21, i32 0, i32 3
  %23 = load i64, ptr %22, align 8, !tbaa !37
  %24 = add nsw i64 %23, %20
  store i64 %24, ptr %22, align 8, !tbaa !37
  call void @llvm.lifetime.end.p0(i64 8, ptr %7) #6
  ret void
}