; Function Attrs: nounwind uwtable
define hidden void @luaM_free_(ptr noundef readonly captures(none) %0, ptr noundef %1, i64 noundef %2) local_unnamed_addr #0 {
  %4 = getelementptr inbounds nuw i8, ptr %0, i64 24
  %5 = load ptr, ptr %4, align 8, !tbaa !9
  %6 = load ptr, ptr %5, align 8, !tbaa !22
  %7 = getelementptr inbounds nuw i8, ptr %5, i64 8
  %8 = load ptr, ptr %7, align 8, !tbaa !29
  %9 = tail call ptr %6(ptr noundef %8, ptr noundef %1, i64 noundef %2, i64 noundef 0) #6
  %10 = getelementptr inbounds nuw i8, ptr %5, i64 24
  %11 = load i64, ptr %10, align 8, !tbaa !31
  %12 = add nsw i64 %11, %2
  store i64 %12, ptr %10, align 8, !tbaa !31
  ret void
}